; Function Attrs: nounwind uwtable
define range(i32 -1, 1) i32 @H5F__get_max_eof_eoa(ptr nocapture noundef readonly %0, ptr nocapture noundef writeonly %1) local_unnamed_addr #0 {
  %3 = getelementptr inbounds i8, ptr %0, i64 16
  %4 = load ptr, ptr %3, align 8
  %5 = load ptr, ptr %4, align 8
  %6 = tail call i64 @H5FD_get_eoa(ptr noundef %5, i32 noundef 0) #22
  %7 = load ptr, ptr %3, align 8
  %8 = load ptr, ptr %7, align 8
  %9 = tail call i64 @H5FD_get_eof(ptr noundef %8, i32 noundef 0) #22
  %10 = tail call i64 @llvm.umax.i64(i64 %9, i64 %6)
  %11 = icmp eq i64 %10, -1
  br i1 %11, label %12, label %16

12:                                               ; preds = %2
  %13 = load i64, ptr @H5E_FILE_g, align 8
  %14 = load i64, ptr @H5E_CANTGET_g, align 8
  %15 = tail call i32 (ptr, ptr, i32, i64, i64, ptr, ...) @H5E_printf_stack(ptr noundef nonnull @.str.2, ptr noundef nonnull @__func__.H5F__get_max_eof_eoa, i32 noundef 3582, i64 noundef %13, i64 noundef %14, ptr noundef nonnull @.str.150) #22
  br label %17

16:                                               ; preds = %2
  store i64 %10, ptr %1, align 8
  br label %17

17:                                               ; preds = %16, %12
  %.0 = phi i32 [ -1, %12 ], [ 0, %16 ]
  ret i32 %.0
}